
bin/intAddSub_cpp.o:	file format mach-o arm64

Disassembly of section __TEXT,__text:

0000000000000000 <ltmp0>:
       0: d10103ff     	sub	sp, sp, #64
       4: a9037bfd     	stp	x29, x30, [sp, #48]
       8: 9100c3fd     	add	x29, sp, #48
       c: aa0003e8     	mov	x8, x0
      10: 90000000     	adrp	x0, 0x0 <ltmp0+0x10>
      14: f9400000     	ldr	x0, [x0]
      18: f90007e0     	str	x0, [sp, #8]
      1c: f81f83a8     	stur	x8, [x29, #-8]
      20: b81f43a1     	stur	w1, [x29, #-12]
      24: b81f03a2     	stur	w2, [x29, #-16]
      28: b81ec3a3     	stur	w3, [x29, #-20]
      2c: b9001be4     	str	w4, [sp, #24]
      30: b90017e5     	str	w5, [sp, #20]
      34: 52800148     	mov	w8, #10
      38: 39004fe8     	strb	w8, [sp, #19]
      3c: f85f83a1     	ldur	x1, [x29, #-8]
      40: 94000000     	bl	0x40 <ltmp0+0x40>
      44: 52800141     	mov	w1, #10
      48: b90007e1     	str	w1, [sp, #4]
      4c: 94000000     	bl	0x4c <ltmp0+0x4c>
      50: f94007e0     	ldr	x0, [sp, #8]
      54: 90000001     	adrp	x1, 0x0 <ltmp0+0x54>
      58: 91000021     	add	x1, x1, #0
      5c: 94000000     	bl	0x5c <ltmp0+0x5c>
      60: b85f43a1     	ldur	w1, [x29, #-12]
      64: 94000000     	bl	0x64 <ltmp0+0x64>
      68: b94007e1     	ldr	w1, [sp, #4]
      6c: 94000000     	bl	0x6c <ltmp0+0x6c>
      70: f94007e0     	ldr	x0, [sp, #8]
      74: 90000001     	adrp	x1, 0x0 <ltmp0+0x74>
      78: 91000021     	add	x1, x1, #0
      7c: 94000000     	bl	0x7c <ltmp0+0x7c>
      80: b85f03a1     	ldur	w1, [x29, #-16]
      84: 94000000     	bl	0x84 <ltmp0+0x84>
      88: b94007e1     	ldr	w1, [sp, #4]
      8c: 94000000     	bl	0x8c <ltmp0+0x8c>
      90: f94007e0     	ldr	x0, [sp, #8]
      94: 90000001     	adrp	x1, 0x0 <ltmp0+0x94>
      98: 91000021     	add	x1, x1, #0
      9c: 94000000     	bl	0x9c <ltmp0+0x9c>
      a0: b85ec3a1     	ldur	w1, [x29, #-20]
      a4: 94000000     	bl	0xa4 <ltmp0+0xa4>
      a8: b94007e1     	ldr	w1, [sp, #4]
      ac: 94000000     	bl	0xac <ltmp0+0xac>
      b0: f94007e0     	ldr	x0, [sp, #8]
      b4: 90000001     	adrp	x1, 0x0 <ltmp0+0xb4>
      b8: 91000021     	add	x1, x1, #0
      bc: 94000000     	bl	0xbc <ltmp0+0xbc>
      c0: b9401be1     	ldr	w1, [sp, #24]
      c4: 94000000     	bl	0xc4 <ltmp0+0xc4>
      c8: b94007e1     	ldr	w1, [sp, #4]
      cc: 94000000     	bl	0xcc <ltmp0+0xcc>
      d0: f94007e0     	ldr	x0, [sp, #8]
      d4: 90000001     	adrp	x1, 0x0 <ltmp0+0xd4>
      d8: 91000021     	add	x1, x1, #0
      dc: 94000000     	bl	0xdc <ltmp0+0xdc>
      e0: b94017e1     	ldr	w1, [sp, #20]
      e4: 94000000     	bl	0xe4 <ltmp0+0xe4>
      e8: b94007e1     	ldr	w1, [sp, #4]
      ec: 94000000     	bl	0xec <ltmp0+0xec>
      f0: b94007e1     	ldr	w1, [sp, #4]
      f4: f94007e0     	ldr	x0, [sp, #8]
      f8: 94000000     	bl	0xf8 <ltmp0+0xf8>
      fc: a9437bfd     	ldp	x29, x30, [sp, #48]
     100: 910103ff     	add	sp, sp, #64
     104: d65f03c0     	ret

0000000000000108 <__ZNSt3__1lsB7v160006INS_11char_traitsIcEEEERNS_13basic_ostreamIcT_EES6_c>:
     108: d10083ff     	sub	sp, sp, #32
     10c: a9017bfd     	stp	x29, x30, [sp, #16]
     110: 910043fd     	add	x29, sp, #16
     114: aa0103e8     	mov	x8, x1
     118: f90007e0     	str	x0, [sp, #8]
     11c: 91001fe1     	add	x1, sp, #7
     120: 39001fe8     	strb	w8, [sp, #7]
     124: f94007e0     	ldr	x0, [sp, #8]
     128: d2800022     	mov	x2, #1
     12c: 94000000     	bl	0x12c <__ZNSt3__1lsB7v160006INS_11char_traitsIcEEEERNS_13basic_ostreamIcT_EES6_c+0x24>
     130: a9417bfd     	ldp	x29, x30, [sp, #16]
     134: 910083ff     	add	sp, sp, #32
     138: d65f03c0     	ret

000000000000013c <__ZNSt3__1lsB7v160006INS_11char_traitsIcEEEERNS_13basic_ostreamIcT_EES6_PKc>:
     13c: d100c3ff     	sub	sp, sp, #48
     140: a9027bfd     	stp	x29, x30, [sp, #32]
     144: 910083fd     	add	x29, sp, #32
     148: f81f83a0     	stur	x0, [x29, #-8]
     14c: f9000be1     	str	x1, [sp, #16]
     150: f85f83a8     	ldur	x8, [x29, #-8]
     154: f90007e8     	str	x8, [sp, #8]
     158: f9400be8     	ldr	x8, [sp, #16]
     15c: f90003e8     	str	x8, [sp]
     160: f9400be0     	ldr	x0, [sp, #16]
     164: 94000000     	bl	0x164 <__ZNSt3__1lsB7v160006INS_11char_traitsIcEEEERNS_13basic_ostreamIcT_EES6_PKc+0x28>
     168: f94003e1     	ldr	x1, [sp]
     16c: aa0003e2     	mov	x2, x0
     170: f94007e0     	ldr	x0, [sp, #8]
     174: 94000000     	bl	0x174 <__ZNSt3__1lsB7v160006INS_11char_traitsIcEEEERNS_13basic_ostreamIcT_EES6_PKc+0x38>
     178: a9427bfd     	ldp	x29, x30, [sp, #32]
     17c: 9100c3ff     	add	sp, sp, #48
     180: d65f03c0     	ret

0000000000000184 <_main>:
     184: d10103ff     	sub	sp, sp, #64
     188: a9037bfd     	stp	x29, x30, [sp, #48]
     18c: 9100c3fd     	add	x29, sp, #48
     190: b81fc3a0     	stur	w0, [x29, #-4]
     194: f81f03a1     	stur	x1, [x29, #-16]
     198: 52800148     	mov	w8, #10
     19c: b81ec3a8     	stur	w8, [x29, #-20]
     1a0: 52800288     	mov	w8, #20
     1a4: b9001be8     	str	w8, [sp, #24]
     1a8: 528003c8     	mov	w8, #30
     1ac: b90017e8     	str	w8, [sp, #20]
     1b0: 52800248     	mov	w8, #18
     1b4: b90013e8     	str	w8, [sp, #16]
     1b8: b85ec3a0     	ldur	w0, [x29, #-20]
     1bc: b9401be1     	ldr	w1, [sp, #24]
     1c0: b94017e2     	ldr	w2, [sp, #20]
     1c4: b94013e3     	ldr	w3, [sp, #16]
     1c8: 94000000     	bl	0x1c8 <_main+0x44>
     1cc: b9000fe0     	str	w0, [sp, #12]
     1d0: b85ec3a1     	ldur	w1, [x29, #-20]
     1d4: b9401be2     	ldr	w2, [sp, #24]
     1d8: b94017e3     	ldr	w3, [sp, #20]
     1dc: b94013e4     	ldr	w4, [sp, #16]
     1e0: b9400fe5     	ldr	w5, [sp, #12]
     1e4: 90000000     	adrp	x0, 0x0 <_main+0x60>
     1e8: 91000000     	add	x0, x0, #0
     1ec: 94000000     	bl	0x1ec <_main+0x68>
     1f0: 52800ca8     	mov	w8, #101
     1f4: b81ec3a8     	stur	w8, [x29, #-20]
     1f8: 52800448     	mov	w8, #34
     1fc: b9001be8     	str	w8, [sp, #24]
     200: 128017a8     	mov	w8, #-190
     204: b90017e8     	str	w8, [sp, #20]
     208: 52800328     	mov	w8, #25
     20c: b90013e8     	str	w8, [sp, #16]
     210: b85ec3a0     	ldur	w0, [x29, #-20]
     214: b9401be1     	ldr	w1, [sp, #24]
     218: b94017e2     	ldr	w2, [sp, #20]
     21c: b94013e3     	ldr	w3, [sp, #16]
     220: 94000000     	bl	0x220 <_main+0x9c>
     224: b9000fe0     	str	w0, [sp, #12]
     228: b85ec3a1     	ldur	w1, [x29, #-20]
     22c: b9401be2     	ldr	w2, [sp, #24]
     230: b94017e3     	ldr	w3, [sp, #20]
     234: b94013e4     	ldr	w4, [sp, #16]
     238: b9400fe5     	ldr	w5, [sp, #12]
     23c: 90000000     	adrp	x0, 0x0 <_main+0xb8>
     240: 91000000     	add	x0, x0, #0
     244: 94000000     	bl	0x244 <_main+0xc0>
     248: 52800000     	mov	w0, #0
     24c: a9437bfd     	ldp	x29, x30, [sp, #48]
     250: 910103ff     	add	sp, sp, #64
     254: d65f03c0     	ret

0000000000000258 <__ZNSt3__124__put_character_sequenceB7v160006IcNS_11char_traitsIcEEEERNS_13basic_ostreamIT_T0_EES7_PKS4_m>:
     258: d10283ff     	sub	sp, sp, #160
     25c: a9097bfd     	stp	x29, x30, [sp, #144]
     260: 910243fd     	add	x29, sp, #144
     264: f81f83a0     	stur	x0, [x29, #-8]
     268: f81f03a1     	stur	x1, [x29, #-16]
     26c: f81e83a2     	stur	x2, [x29, #-24]
     270: f85f83a1     	ldur	x1, [x29, #-8]
     274: d100a3a0     	sub	x0, x29, #40
     278: 94000000     	bl	0x278 <__ZNSt3__124__put_character_sequenceB7v160006IcNS_11char_traitsIcEEEERNS_13basic_ostreamIT_T0_EES7_PKS4_m+0x20>
     27c: 14000001     	b	0x280 <__ZNSt3__124__put_character_sequenceB7v160006IcNS_11char_traitsIcEEEERNS_13basic_ostreamIT_T0_EES7_PKS4_m+0x28>
     280: d100a3a0     	sub	x0, x29, #40
     284: 94000000     	bl	0x284 <__ZNSt3__124__put_character_sequenceB7v160006IcNS_11char_traitsIcEEEERNS_13basic_ostreamIT_T0_EES7_PKS4_m+0x2c>
     288: b90047e0     	str	w0, [sp, #68]
     28c: 14000001     	b	0x290 <__ZNSt3__124__put_character_sequenceB7v160006IcNS_11char_traitsIcEEEERNS_13basic_ostreamIT_T0_EES7_PKS4_m+0x38>
     290: b94047e8     	ldr	w8, [sp, #68]
     294: 36000a48     	tbz	w8, #0, 0x3dc <__ZNSt3__124__put_character_sequenceB7v160006IcNS_11char_traitsIcEEEERNS_13basic_ostreamIT_T0_EES7_PKS4_m+0x184>
     298: 14000001     	b	0x29c <__ZNSt3__124__put_character_sequenceB7v160006IcNS_11char_traitsIcEEEERNS_13basic_ostreamIT_T0_EES7_PKS4_m+0x44>
     29c: f85f83a1     	ldur	x1, [x29, #-8]
     2a0: 910123e0     	add	x0, sp, #72
     2a4: 94000000     	bl	0x2a4 <__ZNSt3__124__put_character_sequenceB7v160006IcNS_11char_traitsIcEEEERNS_13basic_ostreamIT_T0_EES7_PKS4_m+0x4c>
     2a8: f85f03a8     	ldur	x8, [x29, #-16]
     2ac: f9001fe8     	str	x8, [sp, #56]
     2b0: f85f83a8     	ldur	x8, [x29, #-8]
     2b4: f9400109     	ldr	x9, [x8]
     2b8: f85e8129     	ldur	x9, [x9, #-24]
     2bc: 8b090100     	add	x0, x8, x9
     2c0: 94000000     	bl	0x2c0 <__ZNSt3__124__put_character_sequenceB7v160006IcNS_11char_traitsIcEEEERNS_13basic_ostreamIT_T0_EES7_PKS4_m+0x68>
     2c4: b90043e0     	str	w0, [sp, #64]
     2c8: 14000001     	b	0x2cc <__ZNSt3__124__put_character_sequenceB7v160006IcNS_11char_traitsIcEEEERNS_13basic_ostreamIT_T0_EES7_PKS4_m+0x74>
     2cc: b94043e8     	ldr	w8, [sp, #64]
     2d0: 52801609     	mov	w9, #176
     2d4: 0a090108     	and	w8, w8, w9
     2d8: 71008108     	subs	w8, w8, #32
     2dc: 1a9f07e8     	cset	w8, ne
     2e0: 370000e8     	tbnz	w8, #0, 0x2fc <__ZNSt3__124__put_character_sequenceB7v160006IcNS_11char_traitsIcEEEERNS_13basic_ostreamIT_T0_EES7_PKS4_m+0xa4>
     2e4: 14000001     	b	0x2e8 <__ZNSt3__124__put_character_sequenceB7v160006IcNS_11char_traitsIcEEEERNS_13basic_ostreamIT_T0_EES7_PKS4_m+0x90>
     2e8: f85f03a8     	ldur	x8, [x29, #-16]
     2ec: f85e83a9     	ldur	x9, [x29, #-24]
     2f0: 8b090108     	add	x8, x8, x9
     2f4: f9001be8     	str	x8, [sp, #48]
     2f8: 14000004     	b	0x308 <__ZNSt3__124__put_character_sequenceB7v160006IcNS_11char_traitsIcEEEERNS_13basic_ostreamIT_T0_EES7_PKS4_m+0xb0>
     2fc: f85f03a8     	ldur	x8, [x29, #-16]
     300: f9001be8     	str	x8, [sp, #48]
     304: 14000001     	b	0x308 <__ZNSt3__124__put_character_sequenceB7v160006IcNS_11char_traitsIcEEEERNS_13basic_ostreamIT_T0_EES7_PKS4_m+0xb0>
     308: f9401be8     	ldr	x8, [sp, #48]
     30c: f9000be8     	str	x8, [sp, #16]
     310: f85f03a8     	ldur	x8, [x29, #-16]
     314: f85e83a9     	ldur	x9, [x29, #-24]
     318: 8b090108     	add	x8, x8, x9
     31c: f9000fe8     	str	x8, [sp, #24]
     320: f85f83a8     	ldur	x8, [x29, #-8]
     324: f9400109     	ldr	x9, [x8]
     328: f85e8129     	ldur	x9, [x9, #-24]
     32c: 8b090108     	add	x8, x8, x9
     330: f90013e8     	str	x8, [sp, #32]
     334: f85f83a8     	ldur	x8, [x29, #-8]
     338: f9400109     	ldr	x9, [x8]
     33c: f85e8129     	ldur	x9, [x9, #-24]
     340: 8b090100     	add	x0, x8, x9
     344: 94000000     	bl	0x344 <__ZNSt3__124__put_character_sequenceB7v160006IcNS_11char_traitsIcEEEERNS_13basic_ostreamIT_T0_EES7_PKS4_m+0xec>
     348: b9002fe0     	str	w0, [sp, #44]
     34c: 14000001     	b	0x350 <__ZNSt3__124__put_character_sequenceB7v160006IcNS_11char_traitsIcEEEERNS_13basic_ostreamIT_T0_EES7_PKS4_m+0xf8>
     350: b9402fe8     	ldr	w8, [sp, #44]
     354: f94013e4     	ldr	x4, [sp, #32]
     358: f9400fe3     	ldr	x3, [sp, #24]
     35c: f9400be2     	ldr	x2, [sp, #16]
     360: f9401fe1     	ldr	x1, [sp, #56]
     364: f94027e0     	ldr	x0, [sp, #72]
     368: 13001d05     	sxtb	w5, w8
     36c: 94000000     	bl	0x36c <__ZNSt3__124__put_character_sequenceB7v160006IcNS_11char_traitsIcEEEERNS_13basic_ostreamIT_T0_EES7_PKS4_m+0x114>
     370: f90007e0     	str	x0, [sp, #8]
     374: 14000001     	b	0x378 <__ZNSt3__124__put_character_sequenceB7v160006IcNS_11char_traitsIcEEEERNS_13basic_ostreamIT_T0_EES7_PKS4_m+0x120>
     378: f94007e8     	ldr	x8, [sp, #8]
     37c: d10103a0     	sub	x0, x29, #64
     380: f81c03a8     	stur	x8, [x29, #-64]
     384: 94000000     	bl	0x384 <__ZNSt3__124__put_character_sequenceB7v160006IcNS_11char_traitsIcEEEERNS_13basic_ostreamIT_T0_EES7_PKS4_m+0x12c>
     388: 36000280     	tbz	w0, #0, 0x3d8 <__ZNSt3__124__put_character_sequenceB7v160006IcNS_11char_traitsIcEEEERNS_13basic_ostreamIT_T0_EES7_PKS4_m+0x180>
     38c: 14000001     	b	0x390 <__ZNSt3__124__put_character_sequenceB7v160006IcNS_11char_traitsIcEEEERNS_13basic_ostreamIT_T0_EES7_PKS4_m+0x138>
     390: f85f83a8     	ldur	x8, [x29, #-8]
     394: f9400109     	ldr	x9, [x8]
     398: f85e8129     	ldur	x9, [x9, #-24]
     39c: 8b090100     	add	x0, x8, x9
     3a0: 528000a1     	mov	w1, #5
     3a4: 94000000     	bl	0x3a4 <__ZNSt3__124__put_character_sequenceB7v160006IcNS_11char_traitsIcEEEERNS_13basic_ostreamIT_T0_EES7_PKS4_m+0x14c>
     3a8: 14000001     	b	0x3ac <__ZNSt3__124__put_character_sequenceB7v160006IcNS_11char_traitsIcEEEERNS_13basic_ostreamIT_T0_EES7_PKS4_m+0x154>
     3ac: 1400000b     	b	0x3d8 <__ZNSt3__124__put_character_sequenceB7v160006IcNS_11char_traitsIcEEEERNS_13basic_ostreamIT_T0_EES7_PKS4_m+0x180>
     3b0: f81d03a0     	stur	x0, [x29, #-48]
     3b4: aa0103e8     	mov	x8, x1
     3b8: b81cc3a8     	stur	w8, [x29, #-52]
     3bc: 1400000d     	b	0x3f0 <__ZNSt3__124__put_character_sequenceB7v160006IcNS_11char_traitsIcEEEERNS_13basic_ostreamIT_T0_EES7_PKS4_m+0x198>
     3c0: f81d03a0     	stur	x0, [x29, #-48]
     3c4: aa0103e8     	mov	x8, x1
     3c8: b81cc3a8     	stur	w8, [x29, #-52]
     3cc: d100a3a0     	sub	x0, x29, #40
     3d0: 94000000     	bl	0x3d0 <__ZNSt3__124__put_character_sequenceB7v160006IcNS_11char_traitsIcEEEERNS_13basic_ostreamIT_T0_EES7_PKS4_m+0x178>
     3d4: 14000006     	b	0x3ec <__ZNSt3__124__put_character_sequenceB7v160006IcNS_11char_traitsIcEEEERNS_13basic_ostreamIT_T0_EES7_PKS4_m+0x194>
     3d8: 14000001     	b	0x3dc <__ZNSt3__124__put_character_sequenceB7v160006IcNS_11char_traitsIcEEEERNS_13basic_ostreamIT_T0_EES7_PKS4_m+0x184>
     3dc: d100a3a0     	sub	x0, x29, #40
     3e0: 94000000     	bl	0x3e0 <__ZNSt3__124__put_character_sequenceB7v160006IcNS_11char_traitsIcEEEERNS_13basic_ostreamIT_T0_EES7_PKS4_m+0x188>
     3e4: 14000001     	b	0x3e8 <__ZNSt3__124__put_character_sequenceB7v160006IcNS_11char_traitsIcEEEERNS_13basic_ostreamIT_T0_EES7_PKS4_m+0x190>
     3e8: 1400000c     	b	0x418 <__ZNSt3__124__put_character_sequenceB7v160006IcNS_11char_traitsIcEEEERNS_13basic_ostreamIT_T0_EES7_PKS4_m+0x1c0>
     3ec: 14000001     	b	0x3f0 <__ZNSt3__124__put_character_sequenceB7v160006IcNS_11char_traitsIcEEEERNS_13basic_ostreamIT_T0_EES7_PKS4_m+0x198>
     3f0: f85d03a0     	ldur	x0, [x29, #-48]
     3f4: 94000000     	bl	0x3f4 <__ZNSt3__124__put_character_sequenceB7v160006IcNS_11char_traitsIcEEEERNS_13basic_ostreamIT_T0_EES7_PKS4_m+0x19c>
     3f8: f85f83a8     	ldur	x8, [x29, #-8]
     3fc: f9400109     	ldr	x9, [x8]
     400: f85e8129     	ldur	x9, [x9, #-24]
     404: 8b090100     	add	x0, x8, x9
     408: 94000000     	bl	0x408 <__ZNSt3__124__put_character_sequenceB7v160006IcNS_11char_traitsIcEEEERNS_13basic_ostreamIT_T0_EES7_PKS4_m+0x1b0>
     40c: 14000001     	b	0x410 <__ZNSt3__124__put_character_sequenceB7v160006IcNS_11char_traitsIcEEEERNS_13basic_ostreamIT_T0_EES7_PKS4_m+0x1b8>
     410: 94000000     	bl	0x410 <__ZNSt3__124__put_character_sequenceB7v160006IcNS_11char_traitsIcEEEERNS_13basic_ostreamIT_T0_EES7_PKS4_m+0x1b8>
     414: 14000001     	b	0x418 <__ZNSt3__124__put_character_sequenceB7v160006IcNS_11char_traitsIcEEEERNS_13basic_ostreamIT_T0_EES7_PKS4_m+0x1c0>
     418: f85f83a0     	ldur	x0, [x29, #-8]
     41c: a9497bfd     	ldp	x29, x30, [sp, #144]
     420: 910283ff     	add	sp, sp, #160
     424: d65f03c0     	ret
     428: f81d03a0     	stur	x0, [x29, #-48]
     42c: aa0103e8     	mov	x8, x1
     430: b81cc3a8     	stur	w8, [x29, #-52]
     434: 94000000     	bl	0x434 <__ZNSt3__124__put_character_sequenceB7v160006IcNS_11char_traitsIcEEEERNS_13basic_ostreamIT_T0_EES7_PKS4_m+0x1dc>
     438: 14000001     	b	0x43c <__ZNSt3__124__put_character_sequenceB7v160006IcNS_11char_traitsIcEEEERNS_13basic_ostreamIT_T0_EES7_PKS4_m+0x1e4>
     43c: 14000001     	b	0x440 <__ZNSt3__124__put_character_sequenceB7v160006IcNS_11char_traitsIcEEEERNS_13basic_ostreamIT_T0_EES7_PKS4_m+0x1e8>
     440: f85d03a0     	ldur	x0, [x29, #-48]
     444: 94000000     	bl	0x444 <__ZNSt3__124__put_character_sequenceB7v160006IcNS_11char_traitsIcEEEERNS_13basic_ostreamIT_T0_EES7_PKS4_m+0x1ec>
     448: 94000000     	bl	0x448 <__ZNSt3__124__put_character_sequenceB7v160006IcNS_11char_traitsIcEEEERNS_13basic_ostreamIT_T0_EES7_PKS4_m+0x1f0>

000000000000044c <__ZNSt3__111char_traitsIcE6lengthEPKc>:
     44c: d100c3ff     	sub	sp, sp, #48
     450: a9027bfd     	stp	x29, x30, [sp, #32]
     454: 910083fd     	add	x29, sp, #32
     458: f81f83a0     	stur	x0, [x29, #-8]
     45c: f85f83a0     	ldur	x0, [x29, #-8]
     460: 94000000     	bl	0x460 <__ZNSt3__111char_traitsIcE6lengthEPKc+0x14>
     464: f90003e0     	str	x0, [sp]
     468: 14000001     	b	0x46c <__ZNSt3__111char_traitsIcE6lengthEPKc+0x20>
     46c: f94003e0     	ldr	x0, [sp]
     470: a9427bfd     	ldp	x29, x30, [sp, #32]
     474: 9100c3ff     	add	sp, sp, #48
     478: d65f03c0     	ret
     47c: f9000be0     	str	x0, [sp, #16]
     480: aa0103e8     	mov	x8, x1
     484: b9000fe8     	str	w8, [sp, #12]
     488: 14000001     	b	0x48c <__ZNSt3__111char_traitsIcE6lengthEPKc+0x40>
     48c: f9400be0     	ldr	x0, [sp, #16]
     490: 94000000     	bl	0x490 <__ZNSt3__111char_traitsIcE6lengthEPKc+0x44>

0000000000000494 <__ZNKSt3__113basic_ostreamIcNS_11char_traitsIcEEE6sentrycvbB7v160006Ev>:
     494: d10043ff     	sub	sp, sp, #16
     498: f90007e0     	str	x0, [sp, #8]
     49c: f94007e8     	ldr	x8, [sp, #8]
     4a0: 39400108     	ldrb	w8, [x8]
     4a4: 12000100     	and	w0, w8, #0x1
     4a8: 910043ff     	add	sp, sp, #16
     4ac: d65f03c0     	ret

00000000000004b0 <__ZNSt3__116__pad_and_outputB7v160006IcNS_11char_traitsIcEEEENS_19ostreambuf_iteratorIT_T0_EES6_PKS4_S8_S8_RNS_8ios_baseES4_>:
     4b0: d10283ff     	sub	sp, sp, #160
     4b4: a9097bfd     	stp	x29, x30, [sp, #144]
     4b8: 910243fd     	add	x29, sp, #144
     4bc: f81f03a0     	stur	x0, [x29, #-16]
     4c0: f81e83a1     	stur	x1, [x29, #-24]
     4c4: f81e03a2     	stur	x2, [x29, #-32]
     4c8: f81d83a3     	stur	x3, [x29, #-40]
     4cc: f81d03a4     	stur	x4, [x29, #-48]
     4d0: 381cf3a5     	sturb	w5, [x29, #-49]
     4d4: f85f03a8     	ldur	x8, [x29, #-16]
     4d8: f1000108     	subs	x8, x8, #0
     4dc: 1a9f07e8     	cset	w8, ne
     4e0: 370000a8     	tbnz	w8, #0, 0x4f4 <__ZNSt3__116__pad_and_outputB7v160006IcNS_11char_traitsIcEEEENS_19ostreambuf_iteratorIT_T0_EES6_PKS4_S8_S8_RNS_8ios_baseES4_+0x44>
     4e4: 14000001     	b	0x4e8 <__ZNSt3__116__pad_and_outputB7v160006IcNS_11char_traitsIcEEEENS_19ostreambuf_iteratorIT_T0_EES6_PKS4_S8_S8_RNS_8ios_baseES4_+0x38>
     4e8: f85f03a8     	ldur	x8, [x29, #-16]
     4ec: f81f83a8     	stur	x8, [x29, #-8]
     4f0: 1400007b     	b	0x6dc <__ZNSt3__116__pad_and_outputB7v160006IcNS_11char_traitsIcEEEENS_19ostreambuf_iteratorIT_T0_EES6_PKS4_S8_S8_RNS_8ios_baseES4_+0x22c>
     4f4: f85d83a8     	ldur	x8, [x29, #-40]
     4f8: f85e83a9     	ldur	x9, [x29, #-24]
     4fc: eb090108     	subs	x8, x8, x9
     500: f81c03a8     	stur	x8, [x29, #-64]
     504: f85d03a0     	ldur	x0, [x29, #-48]
     508: 94000000     	bl	0x508 <__ZNSt3__116__pad_and_outputB7v160006IcNS_11char_traitsIcEEEENS_19ostreambuf_iteratorIT_T0_EES6_PKS4_S8_S8_RNS_8ios_baseES4_+0x58>
     50c: f90027e0     	str	x0, [sp, #72]
     510: f94027e8     	ldr	x8, [sp, #72]
     514: f85c03a9     	ldur	x9, [x29, #-64]
     518: eb090108     	subs	x8, x8, x9
     51c: 1a9fc7e8     	cset	w8, le
     520: 370000e8     	tbnz	w8, #0, 0x53c <__ZNSt3__116__pad_and_outputB7v160006IcNS_11char_traitsIcEEEENS_19ostreambuf_iteratorIT_T0_EES6_PKS4_S8_S8_RNS_8ios_baseES4_+0x8c>
     524: 14000001     	b	0x528 <__ZNSt3__116__pad_and_outputB7v160006IcNS_11char_traitsIcEEEENS_19ostreambuf_iteratorIT_T0_EES6_PKS4_S8_S8_RNS_8ios_baseES4_+0x78>
     528: f85c03a9     	ldur	x9, [x29, #-64]
     52c: f94027e8     	ldr	x8, [sp, #72]
     530: eb090108     	subs	x8, x8, x9
     534: f90027e8     	str	x8, [sp, #72]
     538: 14000003     	b	0x544 <__ZNSt3__116__pad_and_outputB7v160006IcNS_11char_traitsIcEEEENS_19ostreambuf_iteratorIT_T0_EES6_PKS4_S8_S8_RNS_8ios_baseES4_+0x94>
     53c: f90027ff     	str	xzr, [sp, #72]
     540: 14000001     	b	0x544 <__ZNSt3__116__pad_and_outputB7v160006IcNS_11char_traitsIcEEEENS_19ostreambuf_iteratorIT_T0_EES6_PKS4_S8_S8_RNS_8ios_baseES4_+0x94>
     544: f85e03a8     	ldur	x8, [x29, #-32]
     548: f85e83a9     	ldur	x9, [x29, #-24]
     54c: eb090108     	subs	x8, x8, x9
     550: f90023e8     	str	x8, [sp, #64]
     554: f94023e8     	ldr	x8, [sp, #64]
     558: f1000108     	subs	x8, x8, #0
     55c: 1a9fc7e8     	cset	w8, le
     560: 37000208     	tbnz	w8, #0, 0x5a0 <__ZNSt3__116__pad_and_outputB7v160006IcNS_11char_traitsIcEEEENS_19ostreambuf_iteratorIT_T0_EES6_PKS4_S8_S8_RNS_8ios_baseES4_+0xf0>
     564: 14000001     	b	0x568 <__ZNSt3__116__pad_and_outputB7v160006IcNS_11char_traitsIcEEEENS_19ostreambuf_iteratorIT_T0_EES6_PKS4_S8_S8_RNS_8ios_baseES4_+0xb8>
     568: f85f03a0     	ldur	x0, [x29, #-16]
     56c: f85e83a1     	ldur	x1, [x29, #-24]
     570: f94023e2     	ldr	x2, [sp, #64]
     574: 94000000     	bl	0x574 <__ZNSt3__116__pad_and_outputB7v160006IcNS_11char_traitsIcEEEENS_19ostreambuf_iteratorIT_T0_EES6_PKS4_S8_S8_RNS_8ios_baseES4_+0xc4>
     578: f94023e8     	ldr	x8, [sp, #64]
     57c: eb080008     	subs	x8, x0, x8
     580: 1a9f17e8     	cset	w8, eq
     584: 370000c8     	tbnz	w8, #0, 0x59c <__ZNSt3__116__pad_and_outputB7v160006IcNS_11char_traitsIcEEEENS_19ostreambuf_iteratorIT_T0_EES6_PKS4_S8_S8_RNS_8ios_baseES4_+0xec>
     588: 14000001     	b	0x58c <__ZNSt3__116__pad_and_outputB7v160006IcNS_11char_traitsIcEEEENS_19ostreambuf_iteratorIT_T0_EES6_PKS4_S8_S8_RNS_8ios_baseES4_+0xdc>
     58c: f81f03bf     	stur	xzr, [x29, #-16]
     590: f85f03a8     	ldur	x8, [x29, #-16]
     594: f81f83a8     	stur	x8, [x29, #-8]
     598: 14000051     	b	0x6dc <__ZNSt3__116__pad_and_outputB7v160006IcNS_11char_traitsIcEEEENS_19ostreambuf_iteratorIT_T0_EES6_PKS4_S8_S8_RNS_8ios_baseES4_+0x22c>
     59c: 14000001     	b	0x5a0 <__ZNSt3__116__pad_and_outputB7v160006IcNS_11char_traitsIcEEEENS_19ostreambuf_iteratorIT_T0_EES6_PKS4_S8_S8_RNS_8ios_baseES4_+0xf0>
     5a0: f94027e8     	ldr	x8, [sp, #72]
     5a4: f1000108     	subs	x8, x8, #0
     5a8: 1a9fc7e8     	cset	w8, le
     5ac: 370005e8     	tbnz	w8, #0, 0x668 <__ZNSt3__116__pad_and_outputB7v160006IcNS_11char_traitsIcEEEENS_19ostreambuf_iteratorIT_T0_EES6_PKS4_S8_S8_RNS_8ios_baseES4_+0x1b8>
     5b0: 14000001     	b	0x5b4 <__ZNSt3__116__pad_and_outputB7v160006IcNS_11char_traitsIcEEEENS_19ostreambuf_iteratorIT_T0_EES6_PKS4_S8_S8_RNS_8ios_baseES4_+0x104>
     5b4: f94027e1     	ldr	x1, [sp, #72]
     5b8: 38dcf3a2     	ldursb	w2, [x29, #-49]
     5bc: 9100a3e0     	add	x0, sp, #40
     5c0: f90003e0     	str	x0, [sp]
     5c4: 94000000     	bl	0x5c4 <__ZNSt3__116__pad_and_outputB7v160006IcNS_11char_traitsIcEEEENS_19ostreambuf_iteratorIT_T0_EES6_PKS4_S8_S8_RNS_8ios_baseES4_+0x114>
     5c8: f94003e0     	ldr	x0, [sp]
     5cc: f85f03a8     	ldur	x8, [x29, #-16]
     5d0: f90007e8     	str	x8, [sp, #8]
     5d4: 94000000     	bl	0x5d4 <__ZNSt3__116__pad_and_outputB7v160006IcNS_11char_traitsIcEEEENS_19ostreambuf_iteratorIT_T0_EES6_PKS4_S8_S8_RNS_8ios_baseES4_+0x124>
     5d8: aa0003e1     	mov	x1, x0
     5dc: f94007e0     	ldr	x0, [sp, #8]
     5e0: f94027e2     	ldr	x2, [sp, #72]
     5e4: 94000000     	bl	0x5e4 <__ZNSt3__116__pad_and_outputB7v160006IcNS_11char_traitsIcEEEENS_19ostreambuf_iteratorIT_T0_EES6_PKS4_S8_S8_RNS_8ios_baseES4_+0x134>
     5e8: f9000be0     	str	x0, [sp, #16]
     5ec: 14000001     	b	0x5f0 <__ZNSt3__116__pad_and_outputB7v160006IcNS_11char_traitsIcEEEENS_19ostreambuf_iteratorIT_T0_EES6_PKS4_S8_S8_RNS_8ios_baseES4_+0x140>
     5f0: f9400be8     	ldr	x8, [sp, #16]
     5f4: f94027e9     	ldr	x9, [sp, #72]
     5f8: eb090108     	subs	x8, x8, x9
     5fc: 1a9f17e8     	cset	w8, eq
     600: 370001c8     	tbnz	w8, #0, 0x638 <__ZNSt3__116__pad_and_outputB7v160006IcNS_11char_traitsIcEEEENS_19ostreambuf_iteratorIT_T0_EES6_PKS4_S8_S8_RNS_8ios_baseES4_+0x188>
     604: 14000001     	b	0x608 <__ZNSt3__116__pad_and_outputB7v160006IcNS_11char_traitsIcEEEENS_19ostreambuf_iteratorIT_T0_EES6_PKS4_S8_S8_RNS_8ios_baseES4_+0x158>
     608: f81f03bf     	stur	xzr, [x29, #-16]
     60c: f85f03a8     	ldur	x8, [x29, #-16]
     610: f81f83a8     	stur	x8, [x29, #-8]
     614: 52800028     	mov	w8, #1
     618: b9001be8     	str	w8, [sp, #24]
     61c: 14000009     	b	0x640 <__ZNSt3__116__pad_and_outputB7v160006IcNS_11char_traitsIcEEEENS_19ostreambuf_iteratorIT_T0_EES6_PKS4_S8_S8_RNS_8ios_baseES4_+0x190>
     620: f90013e0     	str	x0, [sp, #32]
     624: aa0103e8     	mov	x8, x1
     628: b9001fe8     	str	w8, [sp, #28]
     62c: 9100a3e0     	add	x0, sp, #40
     630: 94000000     	bl	0x630 <__ZNSt3__116__pad_and_outputB7v160006IcNS_11char_traitsIcEEEENS_19ostreambuf_iteratorIT_T0_EES6_PKS4_S8_S8_RNS_8ios_baseES4_+0x180>
     634: 1400000c     	b	0x664 <__ZNSt3__116__pad_and_outputB7v160006IcNS_11char_traitsIcEEEENS_19ostreambuf_iteratorIT_T0_EES6_PKS4_S8_S8_RNS_8ios_baseES4_+0x1b4>
     638: b9001bff     	str	wzr, [sp, #24]
     63c: 14000001     	b	0x640 <__ZNSt3__116__pad_and_outputB7v160006IcNS_11char_traitsIcEEEENS_19ostreambuf_iteratorIT_T0_EES6_PKS4_S8_S8_RNS_8ios_baseES4_+0x190>
     640: 9100a3e0     	add	x0, sp, #40
     644: 94000000     	bl	0x644 <__ZNSt3__116__pad_and_outputB7v160006IcNS_11char_traitsIcEEEENS_19ostreambuf_iteratorIT_T0_EES6_PKS4_S8_S8_RNS_8ios_baseES4_+0x194>
     648: b9401be8     	ldr	w8, [sp, #24]
     64c: 71000108     	subs	w8, w8, #0
     650: 1a9f17e8     	cset	w8, eq
     654: 37000068     	tbnz	w8, #0, 0x660 <__ZNSt3__116__pad_and_outputB7v160006IcNS_11char_traitsIcEEEENS_19ostreambuf_iteratorIT_T0_EES6_PKS4_S8_S8_RNS_8ios_baseES4_+0x1b0>
     658: 14000001     	b	0x65c <__ZNSt3__116__pad_and_outputB7v160006IcNS_11char_traitsIcEEEENS_19ostreambuf_iteratorIT_T0_EES6_PKS4_S8_S8_RNS_8ios_baseES4_+0x1ac>
     65c: 14000020     	b	0x6dc <__ZNSt3__116__pad_and_outputB7v160006IcNS_11char_traitsIcEEEENS_19ostreambuf_iteratorIT_T0_EES6_PKS4_S8_S8_RNS_8ios_baseES4_+0x22c>
     660: 14000002     	b	0x668 <__ZNSt3__116__pad_and_outputB7v160006IcNS_11char_traitsIcEEEENS_19ostreambuf_iteratorIT_T0_EES6_PKS4_S8_S8_RNS_8ios_baseES4_+0x1b8>
     664: 14000022     	b	0x6ec <__ZNSt3__116__pad_and_outputB7v160006IcNS_11char_traitsIcEEEENS_19ostreambuf_iteratorIT_T0_EES6_PKS4_S8_S8_RNS_8ios_baseES4_+0x23c>
     668: f85d83a8     	ldur	x8, [x29, #-40]
     66c: f85e03a9     	ldur	x9, [x29, #-32]
     670: eb090108     	subs	x8, x8, x9
     674: f90023e8     	str	x8, [sp, #64]
     678: f94023e8     	ldr	x8, [sp, #64]
     67c: f1000108     	subs	x8, x8, #0
     680: 1a9fc7e8     	cset	w8, le
     684: 37000208     	tbnz	w8, #0, 0x6c4 <__ZNSt3__116__pad_and_outputB7v160006IcNS_11char_traitsIcEEEENS_19ostreambuf_iteratorIT_T0_EES6_PKS4_S8_S8_RNS_8ios_baseES4_+0x214>
     688: 14000001     	b	0x68c <__ZNSt3__116__pad_and_outputB7v160006IcNS_11char_traitsIcEEEENS_19ostreambuf_iteratorIT_T0_EES6_PKS4_S8_S8_RNS_8ios_baseES4_+0x1dc>
     68c: f85f03a0     	ldur	x0, [x29, #-16]
     690: f85e03a1     	ldur	x1, [x29, #-32]
     694: f94023e2     	ldr	x2, [sp, #64]
     698: 94000000     	bl	0x698 <__ZNSt3__116__pad_and_outputB7v160006IcNS_11char_traitsIcEEEENS_19ostreambuf_iteratorIT_T0_EES6_PKS4_S8_S8_RNS_8ios_baseES4_+0x1e8>
     69c: f94023e8     	ldr	x8, [sp, #64]
     6a0: eb080008     	subs	x8, x0, x8
     6a4: 1a9f17e8     	cset	w8, eq
     6a8: 370000c8     	tbnz	w8, #0, 0x6c0 <__ZNSt3__116__pad_and_outputB7v160006IcNS_11char_traitsIcEEEENS_19ostreambuf_iteratorIT_T0_EES6_PKS4_S8_S8_RNS_8ios_baseES4_+0x210>
     6ac: 14000001     	b	0x6b0 <__ZNSt3__116__pad_and_outputB7v160006IcNS_11char_traitsIcEEEENS_19ostreambuf_iteratorIT_T0_EES6_PKS4_S8_S8_RNS_8ios_baseES4_+0x200>
     6b0: f81f03bf     	stur	xzr, [x29, #-16]
     6b4: f85f03a8     	ldur	x8, [x29, #-16]
     6b8: f81f83a8     	stur	x8, [x29, #-8]
     6bc: 14000008     	b	0x6dc <__ZNSt3__116__pad_and_outputB7v160006IcNS_11char_traitsIcEEEENS_19ostreambuf_iteratorIT_T0_EES6_PKS4_S8_S8_RNS_8ios_baseES4_+0x22c>
     6c0: 14000001     	b	0x6c4 <__ZNSt3__116__pad_and_outputB7v160006IcNS_11char_traitsIcEEEENS_19ostreambuf_iteratorIT_T0_EES6_PKS4_S8_S8_RNS_8ios_baseES4_+0x214>
     6c4: f85d03a0     	ldur	x0, [x29, #-48]
     6c8: d2800001     	mov	x1, #0
     6cc: 94000000     	bl	0x6cc <__ZNSt3__116__pad_and_outputB7v160006IcNS_11char_traitsIcEEEENS_19ostreambuf_iteratorIT_T0_EES6_PKS4_S8_S8_RNS_8ios_baseES4_+0x21c>
     6d0: f85f03a8     	ldur	x8, [x29, #-16]
     6d4: f81f83a8     	stur	x8, [x29, #-8]
     6d8: 14000001     	b	0x6dc <__ZNSt3__116__pad_and_outputB7v160006IcNS_11char_traitsIcEEEENS_19ostreambuf_iteratorIT_T0_EES6_PKS4_S8_S8_RNS_8ios_baseES4_+0x22c>
     6dc: f85f83a0     	ldur	x0, [x29, #-8]
     6e0: a9497bfd     	ldp	x29, x30, [sp, #144]
     6e4: 910283ff     	add	sp, sp, #160
     6e8: d65f03c0     	ret
     6ec: f94013e0     	ldr	x0, [sp, #32]
     6f0: 94000000     	bl	0x6f0 <__ZNSt3__116__pad_and_outputB7v160006IcNS_11char_traitsIcEEEENS_19ostreambuf_iteratorIT_T0_EES6_PKS4_S8_S8_RNS_8ios_baseES4_+0x240>
     6f4: 94000000     	bl	0x6f4 <__ZNSt3__116__pad_and_outputB7v160006IcNS_11char_traitsIcEEEENS_19ostreambuf_iteratorIT_T0_EES6_PKS4_S8_S8_RNS_8ios_baseES4_+0x244>

00000000000006f8 <__ZNSt3__119ostreambuf_iteratorIcNS_11char_traitsIcEEEC1B7v160006ERNS_13basic_ostreamIcS2_EE>:
     6f8: d100c3ff     	sub	sp, sp, #48
     6fc: a9027bfd     	stp	x29, x30, [sp, #32]
     700: 910083fd     	add	x29, sp, #32
     704: f81f83a0     	stur	x0, [x29, #-8]
     708: f9000be1     	str	x1, [sp, #16]
     70c: f85f83a0     	ldur	x0, [x29, #-8]
     710: f90007e0     	str	x0, [sp, #8]
     714: f9400be1     	ldr	x1, [sp, #16]
     718: 94000000     	bl	0x718 <__ZNSt3__119ostreambuf_iteratorIcNS_11char_traitsIcEEEC1B7v160006ERNS_13basic_ostreamIcS2_EE+0x20>
     71c: f94007e0     	ldr	x0, [sp, #8]
     720: a9427bfd     	ldp	x29, x30, [sp, #32]
     724: 9100c3ff     	add	sp, sp, #48
     728: d65f03c0     	ret

000000000000072c <__ZNKSt3__18ios_base5flagsB7v160006Ev>:
     72c: d10043ff     	sub	sp, sp, #16
     730: f90007e0     	str	x0, [sp, #8]
     734: f94007e8     	ldr	x8, [sp, #8]
     738: b9400900     	ldr	w0, [x8, #8]
     73c: 910043ff     	add	sp, sp, #16
     740: d65f03c0     	ret

0000000000000744 <__ZNKSt3__19basic_iosIcNS_11char_traitsIcEEE4fillB7v160006Ev>:
     744: d10083ff     	sub	sp, sp, #32
     748: a9017bfd     	stp	x29, x30, [sp, #16]
     74c: 910043fd     	add	x29, sp, #16
     750: f90007e0     	str	x0, [sp, #8]
     754: f94007e8     	ldr	x8, [sp, #8]
     758: f90003e8     	str	x8, [sp]
     75c: 94000000     	bl	0x75c <__ZNKSt3__19basic_iosIcNS_11char_traitsIcEEE4fillB7v160006Ev+0x18>
     760: f94003e8     	ldr	x8, [sp]
     764: b9409101     	ldr	w1, [x8, #144]
     768: 94000000     	bl	0x768 <__ZNKSt3__19basic_iosIcNS_11char_traitsIcEEE4fillB7v160006Ev+0x24>
     76c: 36000120     	tbz	w0, #0, 0x790 <__ZNKSt3__19basic_iosIcNS_11char_traitsIcEEE4fillB7v160006Ev+0x4c>
     770: 14000001     	b	0x774 <__ZNKSt3__19basic_iosIcNS_11char_traitsIcEEE4fillB7v160006Ev+0x30>
     774: f94003e0     	ldr	x0, [sp]
     778: 52800401     	mov	w1, #32
     77c: 94000000     	bl	0x77c <__ZNKSt3__19basic_iosIcNS_11char_traitsIcEEE4fillB7v160006Ev+0x38>
     780: f94003e9     	ldr	x9, [sp]
     784: 13001c08     	sxtb	w8, w0
     788: b9009128     	str	w8, [x9, #144]
     78c: 14000001     	b	0x790 <__ZNKSt3__19basic_iosIcNS_11char_traitsIcEEE4fillB7v160006Ev+0x4c>
     790: f94003e8     	ldr	x8, [sp]
     794: b9409108     	ldr	w8, [x8, #144]
     798: 13001d00     	sxtb	w0, w8
     79c: a9417bfd     	ldp	x29, x30, [sp, #16]
     7a0: 910083ff     	add	sp, sp, #32
     7a4: d65f03c0     	ret

00000000000007a8 <__ZNKSt3__119ostreambuf_iteratorIcNS_11char_traitsIcEEE6failedB7v160006Ev>:
     7a8: d10043ff     	sub	sp, sp, #16
     7ac: f90007e0     	str	x0, [sp, #8]
     7b0: f94007e8     	ldr	x8, [sp, #8]
     7b4: f9400108     	ldr	x8, [x8]
     7b8: f1000108     	subs	x8, x8, #0
     7bc: 1a9f17e8     	cset	w8, eq
     7c0: 12000100     	and	w0, w8, #0x1
     7c4: 910043ff     	add	sp, sp, #16
     7c8: d65f03c0     	ret

00000000000007cc <__ZNSt3__19basic_iosIcNS_11char_traitsIcEEE8setstateB7v160006Ej>:
     7cc: d10083ff     	sub	sp, sp, #32
     7d0: a9017bfd     	stp	x29, x30, [sp, #16]
     7d4: 910043fd     	add	x29, sp, #16
     7d8: f90007e0     	str	x0, [sp, #8]
     7dc: b90007e1     	str	w1, [sp, #4]
     7e0: f94007e0     	ldr	x0, [sp, #8]
     7e4: b94007e1     	ldr	w1, [sp, #4]
     7e8: 94000000     	bl	0x7e8 <__ZNSt3__19basic_iosIcNS_11char_traitsIcEEE8setstateB7v160006Ej+0x1c>
     7ec: a9417bfd     	ldp	x29, x30, [sp, #16]
     7f0: 910083ff     	add	sp, sp, #32
     7f4: d65f03c0     	ret

00000000000007f8 <___clang_call_terminate>:
     7f8: a9bf7bfd     	stp	x29, x30, [sp, #-16]!
     7fc: 94000000     	bl	0x7fc <___clang_call_terminate+0x4>
     800: 94000000     	bl	0x800 <___clang_call_terminate+0x8>

0000000000000804 <__ZNKSt3__18ios_base5widthB7v160006Ev>:
     804: d10043ff     	sub	sp, sp, #16
     808: f90007e0     	str	x0, [sp, #8]
     80c: f94007e8     	ldr	x8, [sp, #8]
     810: f9400d00     	ldr	x0, [x8, #24]
     814: 910043ff     	add	sp, sp, #16
     818: d65f03c0     	ret

000000000000081c <__ZNSt3__115basic_streambufIcNS_11char_traitsIcEEE5sputnB7v160006EPKcl>:
     81c: d100c3ff     	sub	sp, sp, #48
     820: a9027bfd     	stp	x29, x30, [sp, #32]
     824: 910083fd     	add	x29, sp, #32
     828: f81f83a0     	stur	x0, [x29, #-8]
     82c: f9000be1     	str	x1, [sp, #16]
     830: f90007e2     	str	x2, [sp, #8]
     834: f85f83a0     	ldur	x0, [x29, #-8]
     838: f9400be1     	ldr	x1, [sp, #16]
     83c: f94007e2     	ldr	x2, [sp, #8]
     840: f9400008     	ldr	x8, [x0]
     844: f9403108     	ldr	x8, [x8, #96]
     848: d63f0100     	blr	x8
     84c: a9427bfd     	ldp	x29, x30, [sp, #32]
     850: 9100c3ff     	add	sp, sp, #48
     854: d65f03c0     	ret

0000000000000858 <__ZNSt3__112basic_stringIcNS_11char_traitsIcEENS_9allocatorIcEEEC1B7v160006Emc>:
     858: d100c3ff     	sub	sp, sp, #48
     85c: a9027bfd     	stp	x29, x30, [sp, #32]
     860: 910083fd     	add	x29, sp, #32
     864: f81f83a0     	stur	x0, [x29, #-8]
     868: f9000be1     	str	x1, [sp, #16]
     86c: 39003fe2     	strb	w2, [sp, #15]
     870: f85f83a0     	ldur	x0, [x29, #-8]
     874: f90003e0     	str	x0, [sp]
     878: f9400be1     	ldr	x1, [sp, #16]
     87c: 39c03fe2     	ldrsb	w2, [sp, #15]
     880: 94000000     	bl	0x880 <__ZNSt3__112basic_stringIcNS_11char_traitsIcEENS_9allocatorIcEEEC1B7v160006Emc+0x28>
     884: f94003e0     	ldr	x0, [sp]
     888: a9427bfd     	ldp	x29, x30, [sp, #32]
     88c: 9100c3ff     	add	sp, sp, #48
     890: d65f03c0     	ret

0000000000000894 <__ZNKSt3__112basic_stringIcNS_11char_traitsIcEENS_9allocatorIcEEE4dataB7v160006Ev>:
     894: d10083ff     	sub	sp, sp, #32
     898: a9017bfd     	stp	x29, x30, [sp, #16]
     89c: 910043fd     	add	x29, sp, #16
     8a0: f90007e0     	str	x0, [sp, #8]
     8a4: f94007e0     	ldr	x0, [sp, #8]
     8a8: 94000000     	bl	0x8a8 <__ZNKSt3__112basic_stringIcNS_11char_traitsIcEENS_9allocatorIcEEE4dataB7v160006Ev+0x14>
     8ac: 94000000     	bl	0x8ac <__ZNKSt3__112basic_stringIcNS_11char_traitsIcEENS_9allocatorIcEEE4dataB7v160006Ev+0x18>
     8b0: a9417bfd     	ldp	x29, x30, [sp, #16]
     8b4: 910083ff     	add	sp, sp, #32
     8b8: d65f03c0     	ret

00000000000008bc <__ZNSt3__18ios_base5widthB7v160006El>:
     8bc: d10083ff     	sub	sp, sp, #32
     8c0: f9000fe0     	str	x0, [sp, #24]
     8c4: f9000be1     	str	x1, [sp, #16]
     8c8: f9400fe9     	ldr	x9, [sp, #24]
     8cc: f9400d28     	ldr	x8, [x9, #24]
     8d0: f90007e8     	str	x8, [sp, #8]
     8d4: f9400be8     	ldr	x8, [sp, #16]
     8d8: f9000d28     	str	x8, [x9, #24]
     8dc: f94007e0     	ldr	x0, [sp, #8]
     8e0: 910083ff     	add	sp, sp, #32
     8e4: d65f03c0     	ret

00000000000008e8 <__ZNSt3__112basic_stringIcNS_11char_traitsIcEENS_9allocatorIcEEEC2B7v160006Emc>:
     8e8: d100c3ff     	sub	sp, sp, #48
     8ec: a9027bfd     	stp	x29, x30, [sp, #32]
     8f0: 910083fd     	add	x29, sp, #32
     8f4: f81f83a0     	stur	x0, [x29, #-8]
     8f8: f9000be1     	str	x1, [sp, #16]
     8fc: 39003fe2     	strb	w2, [sp, #15]
     900: f85f83a0     	ldur	x0, [x29, #-8]
     904: f90003e0     	str	x0, [sp]
     908: 91003be1     	add	x1, sp, #14
     90c: 910037e2     	add	x2, sp, #13
     910: 94000000     	bl	0x910 <__ZNSt3__112basic_stringIcNS_11char_traitsIcEENS_9allocatorIcEEEC2B7v160006Emc+0x28>
     914: f94003e0     	ldr	x0, [sp]
     918: f9400be1     	ldr	x1, [sp, #16]
     91c: 39c03fe2     	ldrsb	w2, [sp, #15]
     920: 94000000     	bl	0x920 <__ZNSt3__112basic_stringIcNS_11char_traitsIcEENS_9allocatorIcEEEC2B7v160006Emc+0x38>
     924: f94003e0     	ldr	x0, [sp]
     928: 94000000     	bl	0x928 <__ZNSt3__112basic_stringIcNS_11char_traitsIcEENS_9allocatorIcEEEC2B7v160006Emc+0x40>
     92c: f94003e0     	ldr	x0, [sp]
     930: a9427bfd     	ldp	x29, x30, [sp, #32]
     934: 9100c3ff     	add	sp, sp, #48
     938: d65f03c0     	ret

000000000000093c <__ZNSt3__117__compressed_pairINS_12basic_stringIcNS_11char_traitsIcEENS_9allocatorIcEEE5__repES5_EC1B7v160006INS_18__default_init_tagESA_EEOT_OT0_>:
     93c: d100c3ff     	sub	sp, sp, #48
     940: a9027bfd     	stp	x29, x30, [sp, #32]
     944: 910083fd     	add	x29, sp, #32
     948: f81f83a0     	stur	x0, [x29, #-8]
     94c: f9000be1     	str	x1, [sp, #16]
     950: f90007e2     	str	x2, [sp, #8]
     954: f85f83a0     	ldur	x0, [x29, #-8]
     958: f90003e0     	str	x0, [sp]
     95c: f9400be1     	ldr	x1, [sp, #16]
     960: f94007e2     	ldr	x2, [sp, #8]
     964: 94000000     	bl	0x964 <__ZNSt3__117__compressed_pairINS_12basic_stringIcNS_11char_traitsIcEENS_9allocatorIcEEE5__repES5_EC1B7v160006INS_18__default_init_tagESA_EEOT_OT0_+0x28>
     968: f94003e0     	ldr	x0, [sp]
     96c: a9427bfd     	ldp	x29, x30, [sp, #32]
     970: 9100c3ff     	add	sp, sp, #48
     974: d65f03c0     	ret

0000000000000978 <__ZNSt3__119__debug_db_insert_cB7v160006INS_12basic_stringIcNS_11char_traitsIcEENS_9allocatorIcEEEEEEvPT_>:
     978: d10043ff     	sub	sp, sp, #16
     97c: f90007e0     	str	x0, [sp, #8]
     980: 910043ff     	add	sp, sp, #16
     984: d65f03c0     	ret

0000000000000988 <__ZNSt3__117__compressed_pairINS_12basic_stringIcNS_11char_traitsIcEENS_9allocatorIcEEE5__repES5_EC2B7v160006INS_18__default_init_tagESA_EEOT_OT0_>:
     988: d10103ff     	sub	sp, sp, #64
     98c: a9037bfd     	stp	x29, x30, [sp, #48]
     990: 9100c3fd     	add	x29, sp, #48
     994: f81f83a0     	stur	x0, [x29, #-8]
     998: f81f03a1     	stur	x1, [x29, #-16]
     99c: f9000fe2     	str	x2, [sp, #24]
     9a0: f85f83a0     	ldur	x0, [x29, #-8]
     9a4: f90007e0     	str	x0, [sp, #8]
     9a8: 94000000     	bl	0x9a8 <__ZNSt3__117__compressed_pairINS_12basic_stringIcNS_11char_traitsIcEENS_9allocatorIcEEE5__repES5_EC2B7v160006INS_18__default_init_tagESA_EEOT_OT0_+0x20>
     9ac: f94007e0     	ldr	x0, [sp, #8]
     9b0: 94000000     	bl	0x9b0 <__ZNSt3__117__compressed_pairINS_12basic_stringIcNS_11char_traitsIcEENS_9allocatorIcEEE5__repES5_EC2B7v160006INS_18__default_init_tagESA_EEOT_OT0_+0x28>
     9b4: f94007e0     	ldr	x0, [sp, #8]
     9b8: a9437bfd     	ldp	x29, x30, [sp, #48]
     9bc: 910103ff     	add	sp, sp, #64
     9c0: d65f03c0     	ret

00000000000009c4 <__ZNSt3__122__compressed_pair_elemINS_12basic_stringIcNS_11char_traitsIcEENS_9allocatorIcEEE5__repELi0ELb0EEC2B7v160006ENS_18__default_init_tagE>:
     9c4: d10043ff     	sub	sp, sp, #16
     9c8: f90003e0     	str	x0, [sp]
     9cc: f94003e0     	ldr	x0, [sp]
     9d0: 910043ff     	add	sp, sp, #16
     9d4: d65f03c0     	ret

00000000000009d8 <__ZNSt3__122__compressed_pair_elemINS_9allocatorIcEELi1ELb1EEC2B7v160006ENS_18__default_init_tagE>:
     9d8: d100c3ff     	sub	sp, sp, #48
     9dc: a9027bfd     	stp	x29, x30, [sp, #32]
     9e0: 910083fd     	add	x29, sp, #32
     9e4: f9000be0     	str	x0, [sp, #16]
     9e8: f9400be0     	ldr	x0, [sp, #16]
     9ec: f90007e0     	str	x0, [sp, #8]
     9f0: 94000000     	bl	0x9f0 <__ZNSt3__122__compressed_pair_elemINS_9allocatorIcEELi1ELb1EEC2B7v160006ENS_18__default_init_tagE+0x18>
     9f4: f94007e0     	ldr	x0, [sp, #8]
     9f8: a9427bfd     	ldp	x29, x30, [sp, #32]
     9fc: 9100c3ff     	add	sp, sp, #48
     a00: d65f03c0     	ret

0000000000000a04 <__ZNSt3__19allocatorIcEC2B7v160006Ev>:
     a04: d10083ff     	sub	sp, sp, #32
     a08: a9017bfd     	stp	x29, x30, [sp, #16]
     a0c: 910043fd     	add	x29, sp, #16
     a10: f90007e0     	str	x0, [sp, #8]
     a14: f94007e0     	ldr	x0, [sp, #8]
     a18: f90003e0     	str	x0, [sp]
     a1c: 94000000     	bl	0xa1c <__ZNSt3__19allocatorIcEC2B7v160006Ev+0x18>
     a20: f94003e0     	ldr	x0, [sp]
     a24: a9417bfd     	ldp	x29, x30, [sp, #16]
     a28: 910083ff     	add	sp, sp, #32
     a2c: d65f03c0     	ret

0000000000000a30 <__ZNSt3__116__non_trivial_ifILb1ENS_9allocatorIcEEEC2B7v160006Ev>:
     a30: d10043ff     	sub	sp, sp, #16
     a34: f90007e0     	str	x0, [sp, #8]
     a38: f94007e0     	ldr	x0, [sp, #8]
     a3c: 910043ff     	add	sp, sp, #16
     a40: d65f03c0     	ret

0000000000000a44 <__ZNSt3__112__to_addressB7v160006IKcEEPT_S3_>:
     a44: d10043ff     	sub	sp, sp, #16
     a48: f90007e0     	str	x0, [sp, #8]
     a4c: f94007e0     	ldr	x0, [sp, #8]
     a50: 910043ff     	add	sp, sp, #16
     a54: d65f03c0     	ret

0000000000000a58 <__ZNKSt3__112basic_stringIcNS_11char_traitsIcEENS_9allocatorIcEEE13__get_pointerB7v160006Ev>:
     a58: d100c3ff     	sub	sp, sp, #48
     a5c: a9027bfd     	stp	x29, x30, [sp, #32]
     a60: 910083fd     	add	x29, sp, #32
     a64: f81f83a0     	stur	x0, [x29, #-8]
     a68: f85f83a0     	ldur	x0, [x29, #-8]
     a6c: f9000be0     	str	x0, [sp, #16]
     a70: 94000000     	bl	0xa70 <__ZNKSt3__112basic_stringIcNS_11char_traitsIcEENS_9allocatorIcEEE13__get_pointerB7v160006Ev+0x18>
     a74: 360000c0     	tbz	w0, #0, 0xa8c <__ZNKSt3__112basic_stringIcNS_11char_traitsIcEENS_9allocatorIcEEE13__get_pointerB7v160006Ev+0x34>
     a78: 14000001     	b	0xa7c <__ZNKSt3__112basic_stringIcNS_11char_traitsIcEENS_9allocatorIcEEE13__get_pointerB7v160006Ev+0x24>
     a7c: f9400be0     	ldr	x0, [sp, #16]
     a80: 94000000     	bl	0xa80 <__ZNKSt3__112basic_stringIcNS_11char_traitsIcEENS_9allocatorIcEEE13__get_pointerB7v160006Ev+0x28>
     a84: f90007e0     	str	x0, [sp, #8]
     a88: 14000005     	b	0xa9c <__ZNKSt3__112basic_stringIcNS_11char_traitsIcEENS_9allocatorIcEEE13__get_pointerB7v160006Ev+0x44>
     a8c: f9400be0     	ldr	x0, [sp, #16]
     a90: 94000000     	bl	0xa90 <__ZNKSt3__112basic_stringIcNS_11char_traitsIcEENS_9allocatorIcEEE13__get_pointerB7v160006Ev+0x38>
     a94: f90007e0     	str	x0, [sp, #8]
     a98: 14000001     	b	0xa9c <__ZNKSt3__112basic_stringIcNS_11char_traitsIcEENS_9allocatorIcEEE13__get_pointerB7v160006Ev+0x44>
     a9c: f94007e0     	ldr	x0, [sp, #8]
     aa0: a9427bfd     	ldp	x29, x30, [sp, #32]
     aa4: 9100c3ff     	add	sp, sp, #48
     aa8: d65f03c0     	ret

0000000000000aac <__ZNKSt3__112basic_stringIcNS_11char_traitsIcEENS_9allocatorIcEEE9__is_longB7v160006Ev>:
     aac: d100c3ff     	sub	sp, sp, #48
     ab0: a9027bfd     	stp	x29, x30, [sp, #32]
     ab4: 910083fd     	add	x29, sp, #32
     ab8: f9000be0     	str	x0, [sp, #16]
     abc: f9400be8     	ldr	x8, [sp, #16]
     ac0: f90007e8     	str	x8, [sp, #8]
     ac4: 94000000     	bl	0xac4 <__ZNKSt3__112basic_stringIcNS_11char_traitsIcEENS_9allocatorIcEEE9__is_longB7v160006Ev+0x18>
     ac8: 360000e0     	tbz	w0, #0, 0xae4 <__ZNKSt3__112basic_stringIcNS_11char_traitsIcEENS_9allocatorIcEEE9__is_longB7v160006Ev+0x38>
     acc: 14000001     	b	0xad0 <__ZNKSt3__112basic_stringIcNS_11char_traitsIcEENS_9allocatorIcEEE9__is_longB7v160006Ev+0x24>
     ad0: 52800028     	mov	w8, #1
     ad4: 12000108     	and	w8, w8, #0x1
     ad8: 12000108     	and	w8, w8, #0x1
     adc: 381ff3a8     	sturb	w8, [x29, #-1]
     ae0: 1400000b     	b	0xb0c <__ZNKSt3__112basic_stringIcNS_11char_traitsIcEENS_9allocatorIcEEE9__is_longB7v160006Ev+0x60>
     ae4: f94007e0     	ldr	x0, [sp, #8]
     ae8: 94000000     	bl	0xae8 <__ZNKSt3__112basic_stringIcNS_11char_traitsIcEENS_9allocatorIcEEE9__is_longB7v160006Ev+0x3c>
     aec: 39405c08     	ldrb	w8, [x0, #23]
     af0: 53077d08     	lsr	w8, w8, #7
     af4: 72001d08     	ands	w8, w8, #0xff
     af8: 1a9f07e8     	cset	w8, ne
     afc: 12000108     	and	w8, w8, #0x1
     b00: 12000108     	and	w8, w8, #0x1
     b04: 381ff3a8     	sturb	w8, [x29, #-1]
     b08: 14000001     	b	0xb0c <__ZNKSt3__112basic_stringIcNS_11char_traitsIcEENS_9allocatorIcEEE9__is_longB7v160006Ev+0x60>
     b0c: 385ff3a8     	ldurb	w8, [x29, #-1]
     b10: 12000100     	and	w0, w8, #0x1
     b14: a9427bfd     	ldp	x29, x30, [sp, #32]
     b18: 9100c3ff     	add	sp, sp, #48
     b1c: d65f03c0     	ret

0000000000000b20 <__ZNKSt3__112basic_stringIcNS_11char_traitsIcEENS_9allocatorIcEEE18__get_long_pointerB7v160006Ev>:
     b20: d10083ff     	sub	sp, sp, #32
     b24: a9017bfd     	stp	x29, x30, [sp, #16]
     b28: 910043fd     	add	x29, sp, #16
     b2c: f90007e0     	str	x0, [sp, #8]
     b30: f94007e0     	ldr	x0, [sp, #8]
     b34: 94000000     	bl	0xb34 <__ZNKSt3__112basic_stringIcNS_11char_traitsIcEENS_9allocatorIcEEE18__get_long_pointerB7v160006Ev+0x14>
     b38: f9400000     	ldr	x0, [x0]
     b3c: a9417bfd     	ldp	x29, x30, [sp, #16]
     b40: 910083ff     	add	sp, sp, #32
     b44: d65f03c0     	ret

0000000000000b48 <__ZNKSt3__112basic_stringIcNS_11char_traitsIcEENS_9allocatorIcEEE19__get_short_pointerB7v160006Ev>:
     b48: d10083ff     	sub	sp, sp, #32
     b4c: a9017bfd     	stp	x29, x30, [sp, #16]
     b50: 910043fd     	add	x29, sp, #16
     b54: f90007e0     	str	x0, [sp, #8]
     b58: f94007e0     	ldr	x0, [sp, #8]
     b5c: 94000000     	bl	0xb5c <__ZNKSt3__112basic_stringIcNS_11char_traitsIcEENS_9allocatorIcEEE19__get_short_pointerB7v160006Ev+0x14>
     b60: 94000000     	bl	0xb60 <__ZNKSt3__112basic_stringIcNS_11char_traitsIcEENS_9allocatorIcEEE19__get_short_pointerB7v160006Ev+0x18>
     b64: a9417bfd     	ldp	x29, x30, [sp, #16]
     b68: 910083ff     	add	sp, sp, #32
     b6c: d65f03c0     	ret

0000000000000b70 <__ZNSt3__130__libcpp_is_constant_evaluatedB7v160006Ev>:
     b70: 52800008     	mov	w8, #0
     b74: 12000100     	and	w0, w8, #0x1
     b78: d65f03c0     	ret

0000000000000b7c <__ZNKSt3__117__compressed_pairINS_12basic_stringIcNS_11char_traitsIcEENS_9allocatorIcEEE5__repES5_E5firstB7v160006Ev>:
     b7c: d10083ff     	sub	sp, sp, #32
     b80: a9017bfd     	stp	x29, x30, [sp, #16]
     b84: 910043fd     	add	x29, sp, #16
     b88: f90007e0     	str	x0, [sp, #8]
     b8c: f94007e0     	ldr	x0, [sp, #8]
     b90: 94000000     	bl	0xb90 <__ZNKSt3__117__compressed_pairINS_12basic_stringIcNS_11char_traitsIcEENS_9allocatorIcEEE5__repES5_E5firstB7v160006Ev+0x14>
     b94: a9417bfd     	ldp	x29, x30, [sp, #16]
     b98: 910083ff     	add	sp, sp, #32
     b9c: d65f03c0     	ret

0000000000000ba0 <__ZNKSt3__122__compressed_pair_elemINS_12basic_stringIcNS_11char_traitsIcEENS_9allocatorIcEEE5__repELi0ELb0EE5__getB7v160006Ev>:
     ba0: d10043ff     	sub	sp, sp, #16
     ba4: f90007e0     	str	x0, [sp, #8]
     ba8: f94007e0     	ldr	x0, [sp, #8]
     bac: 910043ff     	add	sp, sp, #16
     bb0: d65f03c0     	ret

0000000000000bb4 <__ZNSt3__114pointer_traitsIPKcE10pointer_toB7v160006ERS1_>:
     bb4: d10043ff     	sub	sp, sp, #16
     bb8: f90007e0     	str	x0, [sp, #8]
     bbc: f94007e0     	ldr	x0, [sp, #8]
     bc0: 910043ff     	add	sp, sp, #16
     bc4: d65f03c0     	ret

0000000000000bc8 <__ZNSt3__119ostreambuf_iteratorIcNS_11char_traitsIcEEEC2B7v160006ERNS_13basic_ostreamIcS2_EE>:
     bc8: d10103ff     	sub	sp, sp, #64
     bcc: a9037bfd     	stp	x29, x30, [sp, #48]
     bd0: 9100c3fd     	add	x29, sp, #48
     bd4: f81f83a0     	stur	x0, [x29, #-8]
     bd8: f81f03a1     	stur	x1, [x29, #-16]
     bdc: f85f83a8     	ldur	x8, [x29, #-8]
     be0: f90003e8     	str	x8, [sp]
     be4: f85f03a8     	ldur	x8, [x29, #-16]
     be8: f9400109     	ldr	x9, [x8]
     bec: f85e8129     	ldur	x9, [x9, #-24]
     bf0: 8b090100     	add	x0, x8, x9
     bf4: 94000000     	bl	0xbf4 <__ZNSt3__119ostreambuf_iteratorIcNS_11char_traitsIcEEEC2B7v160006ERNS_13basic_ostreamIcS2_EE+0x2c>
     bf8: f90007e0     	str	x0, [sp, #8]
     bfc: 14000001     	b	0xc00 <__ZNSt3__119ostreambuf_iteratorIcNS_11char_traitsIcEEEC2B7v160006ERNS_13basic_ostreamIcS2_EE+0x38>
     c00: f94003e0     	ldr	x0, [sp]
     c04: f94007e8     	ldr	x8, [sp, #8]
     c08: f9000008     	str	x8, [x0]
     c0c: a9437bfd     	ldp	x29, x30, [sp, #48]
     c10: 910103ff     	add	sp, sp, #64
     c14: d65f03c0     	ret
     c18: f9000fe0     	str	x0, [sp, #24]
     c1c: aa0103e8     	mov	x8, x1
     c20: b90017e8     	str	w8, [sp, #20]
     c24: 14000001     	b	0xc28 <__ZNSt3__119ostreambuf_iteratorIcNS_11char_traitsIcEEEC2B7v160006ERNS_13basic_ostreamIcS2_EE+0x60>
     c28: f9400fe0     	ldr	x0, [sp, #24]
     c2c: 94000000     	bl	0xc2c <__ZNSt3__119ostreambuf_iteratorIcNS_11char_traitsIcEEEC2B7v160006ERNS_13basic_ostreamIcS2_EE+0x64>

0000000000000c30 <__ZNKSt3__19basic_iosIcNS_11char_traitsIcEEE5rdbufB7v160006Ev>:
     c30: d10083ff     	sub	sp, sp, #32
     c34: a9017bfd     	stp	x29, x30, [sp, #16]
     c38: 910043fd     	add	x29, sp, #16
     c3c: f90007e0     	str	x0, [sp, #8]
     c40: f94007e0     	ldr	x0, [sp, #8]
     c44: 94000000     	bl	0xc44 <__ZNKSt3__19basic_iosIcNS_11char_traitsIcEEE5rdbufB7v160006Ev+0x14>
     c48: a9417bfd     	ldp	x29, x30, [sp, #16]
     c4c: 910083ff     	add	sp, sp, #32
     c50: d65f03c0     	ret

0000000000000c54 <__ZNKSt3__18ios_base5rdbufB7v160006Ev>:
     c54: d10043ff     	sub	sp, sp, #16
     c58: f90007e0     	str	x0, [sp, #8]
     c5c: f94007e8     	ldr	x8, [sp, #8]
     c60: f9401500     	ldr	x0, [x8, #40]
     c64: 910043ff     	add	sp, sp, #16
     c68: d65f03c0     	ret

0000000000000c6c <__ZNSt3__111char_traitsIcE11eq_int_typeEii>:
     c6c: d10043ff     	sub	sp, sp, #16
     c70: b9000fe0     	str	w0, [sp, #12]
     c74: b9000be1     	str	w1, [sp, #8]
     c78: b9400fe8     	ldr	w8, [sp, #12]
     c7c: b9400be9     	ldr	w9, [sp, #8]
     c80: 6b090108     	subs	w8, w8, w9
     c84: 1a9f17e8     	cset	w8, eq
     c88: 12000100     	and	w0, w8, #0x1
     c8c: 910043ff     	add	sp, sp, #16
     c90: d65f03c0     	ret

0000000000000c94 <__ZNSt3__111char_traitsIcE3eofEv>:
     c94: 12800000     	mov	w0, #-1
     c98: d65f03c0     	ret

0000000000000c9c <__ZNKSt3__19basic_iosIcNS_11char_traitsIcEEE5widenB7v160006Ec>:
     c9c: d10143ff     	sub	sp, sp, #80
     ca0: a9047bfd     	stp	x29, x30, [sp, #64]
     ca4: 910103fd     	add	x29, sp, #64
     ca8: f81f83a0     	stur	x0, [x29, #-8]
     cac: 381f73a1     	sturb	w1, [x29, #-9]
     cb0: f85f83a0     	ldur	x0, [x29, #-8]
     cb4: d10063a8     	sub	x8, x29, #24
     cb8: f90007e8     	str	x8, [sp, #8]
     cbc: 94000000     	bl	0xcbc <__ZNKSt3__19basic_iosIcNS_11char_traitsIcEEE5widenB7v160006Ec+0x20>
     cc0: f94007e0     	ldr	x0, [sp, #8]
     cc4: 94000000     	bl	0xcc4 <__ZNKSt3__19basic_iosIcNS_11char_traitsIcEEE5widenB7v160006Ec+0x28>
     cc8: f9000be0     	str	x0, [sp, #16]
     ccc: 14000001     	b	0xcd0 <__ZNKSt3__19basic_iosIcNS_11char_traitsIcEEE5widenB7v160006Ec+0x34>
     cd0: f9400be0     	ldr	x0, [sp, #16]
     cd4: 38df73a1     	ldursb	w1, [x29, #-9]
     cd8: 94000000     	bl	0xcd8 <__ZNKSt3__19basic_iosIcNS_11char_traitsIcEEE5widenB7v160006Ec+0x3c>
     cdc: b90007e0     	str	w0, [sp, #4]
     ce0: 14000001     	b	0xce4 <__ZNKSt3__19basic_iosIcNS_11char_traitsIcEEE5widenB7v160006Ec+0x48>
     ce4: d10063a0     	sub	x0, x29, #24
     ce8: 94000000     	bl	0xce8 <__ZNKSt3__19basic_iosIcNS_11char_traitsIcEEE5widenB7v160006Ec+0x4c>
     cec: b94007e8     	ldr	w8, [sp, #4]
     cf0: 13001d00     	sxtb	w0, w8
     cf4: a9447bfd     	ldp	x29, x30, [sp, #64]
     cf8: 910143ff     	add	sp, sp, #80
     cfc: d65f03c0     	ret
     d00: f90013e0     	str	x0, [sp, #32]
     d04: aa0103e8     	mov	x8, x1
     d08: b9001fe8     	str	w8, [sp, #28]
     d0c: d10063a0     	sub	x0, x29, #24
     d10: 94000000     	bl	0xd10 <__ZNKSt3__19basic_iosIcNS_11char_traitsIcEEE5widenB7v160006Ec+0x74>
     d14: 14000001     	b	0xd18 <__ZNKSt3__19basic_iosIcNS_11char_traitsIcEEE5widenB7v160006Ec+0x7c>
     d18: 14000001     	b	0xd1c <__ZNKSt3__19basic_iosIcNS_11char_traitsIcEEE5widenB7v160006Ec+0x80>
     d1c: f94013e0     	ldr	x0, [sp, #32]
     d20: 94000000     	bl	0xd20 <__ZNKSt3__19basic_iosIcNS_11char_traitsIcEEE5widenB7v160006Ec+0x84>
     d24: 94000000     	bl	0xd24 <__ZNKSt3__19basic_iosIcNS_11char_traitsIcEEE5widenB7v160006Ec+0x88>

0000000000000d28 <__ZNSt3__19use_facetB7v160006INS_5ctypeIcEEEERKT_RKNS_6localeE>:
     d28: d10083ff     	sub	sp, sp, #32
     d2c: a9017bfd     	stp	x29, x30, [sp, #16]
     d30: 910043fd     	add	x29, sp, #16
     d34: f90007e0     	str	x0, [sp, #8]
     d38: f94007e0     	ldr	x0, [sp, #8]
     d3c: 90000001     	adrp	x1, 0x0 <__ZNSt3__19use_facetB7v160006INS_5ctypeIcEEEERKT_RKNS_6localeE+0x14>
     d40: f9400021     	ldr	x1, [x1]
     d44: 94000000     	bl	0xd44 <__ZNSt3__19use_facetB7v160006INS_5ctypeIcEEEERKT_RKNS_6localeE+0x1c>
     d48: a9417bfd     	ldp	x29, x30, [sp, #16]
     d4c: 910083ff     	add	sp, sp, #32
     d50: d65f03c0     	ret

0000000000000d54 <__ZNKSt3__15ctypeIcE5widenB7v160006Ec>:
     d54: d10083ff     	sub	sp, sp, #32
     d58: a9017bfd     	stp	x29, x30, [sp, #16]
     d5c: 910043fd     	add	x29, sp, #16
     d60: f90007e0     	str	x0, [sp, #8]
     d64: 39001fe1     	strb	w1, [sp, #7]
     d68: f94007e0     	ldr	x0, [sp, #8]
     d6c: 39c01fe1     	ldrsb	w1, [sp, #7]
     d70: f9400008     	ldr	x8, [x0]
     d74: f9401d08     	ldr	x8, [x8, #56]
     d78: d63f0100     	blr	x8
     d7c: 13001c00     	sxtb	w0, w0
     d80: a9417bfd     	ldp	x29, x30, [sp, #16]
     d84: 910083ff     	add	sp, sp, #32
     d88: d65f03c0     	ret

0000000000000d8c <__ZNSt3__18ios_base8setstateB7v160006Ej>:
     d8c: d10083ff     	sub	sp, sp, #32
     d90: a9017bfd     	stp	x29, x30, [sp, #16]
     d94: 910043fd     	add	x29, sp, #16
     d98: f90007e0     	str	x0, [sp, #8]
     d9c: b90007e1     	str	w1, [sp, #4]
     da0: f94007e0     	ldr	x0, [sp, #8]
     da4: b9402008     	ldr	w8, [x0, #32]
     da8: b94007e9     	ldr	w9, [sp, #4]
     dac: 2a090101     	orr	w1, w8, w9
     db0: 94000000     	bl	0xdb0 <__ZNSt3__18ios_base8setstateB7v160006Ej+0x24>
     db4: a9417bfd     	ldp	x29, x30, [sp, #16]
     db8: 910083ff     	add	sp, sp, #32
     dbc: d65f03c0     	ret

0000000000000dc0 <__ZNSt3__118__constexpr_strlenB7v160006EPKc>:
     dc0: d10083ff     	sub	sp, sp, #32
     dc4: a9017bfd     	stp	x29, x30, [sp, #16]
     dc8: 910043fd     	add	x29, sp, #16
     dcc: f90007e0     	str	x0, [sp, #8]
     dd0: f94007e0     	ldr	x0, [sp, #8]
     dd4: 94000000     	bl	0xdd4 <__ZNSt3__118__constexpr_strlenB7v160006EPKc+0x14>
     dd8: a9417bfd     	ldp	x29, x30, [sp, #16]
     ddc: 910083ff     	add	sp, sp, #32
     de0: d65f03c0     	ret
